	.text
	.file	"s_fma.c"
	.globl	fma                     //  -- Begin function fma
	.type	fma,@function
fma:                                    //  @fma
	.cfi_sections .debug_frame
	.cfi_startproc
	.cfi_return_column 1
//  %bb.0:                              //  %entry
	.cfi_def_cfa 2, 0
	addi x2 ,  x2 ,  -16
	.cfi_adjust_cfa_offset 16
	sw x9 ,  8 ( x2 )               //  4-byte Folded Spill
	.cfi_offset 9, -8
	sw x8 ,  4 ( x2 )               //  4-byte Folded Spill
	.cfi_offset 8, -12
	sw x1 ,  12 ( x2 )              //  4-byte Folded Spill
	.cfi_offset 1, -4
	add x8 ,  x0 ,  x15
	add x9 ,  x0 ,  x14
	call __muldf3
	add x12 ,  x0 ,  x9
	add x13 ,  x0 ,  x8
	call __adddf3
	lw x8 ,  4 ( x2 )               //  4-byte Folded Reload
	lw x9 ,  8 ( x2 )               //  4-byte Folded Reload
	lw x1 ,  12 ( x2 )              //  4-byte Folded Reload
	addi x2 ,  x2 ,  16
	.cfi_def_cfa 2, 0
	ret
.Lfunc_end0:
	.size	fma, .Lfunc_end0-fma
	.cfi_endproc
                                        //  -- End function

	.ident	"clang version 9.0.1 (ssh://git@gitlab.codasip.com/codasip-studio/llvm-project.git d5357f0eec354bae21f33cf62e5504ff6d1cc93d)"
	.section	".note.GNU-stack","",@progbits
