	.text
	.file	"iswctype.c"
	.globl	iswctype                //  -- Begin function iswctype
	.type	iswctype,@function
iswctype:                               //  @iswctype
	.cfi_sections .debug_frame
	.cfi_startproc
	.cfi_return_column 1
//  %bb.0:                              //  %entry
	.cfi_def_cfa 2, 0
	addi x2 ,  x2 ,  -8
	.cfi_adjust_cfa_offset 8
	addi x15 ,  x11 ,  -1
	addi x14 ,  x0 ,  11
	sw x1 ,  4 ( x2 )               //  4-byte Folded Spill
	.cfi_offset 1, -4
	bltu x14, x15, .LBB0_1
.LBB0_2:                                //  %entry
	lui x30 ,  JTI0_0&4095
	lui x14 ,  (JTI0_0>>12)&1048575
	slli x15 ,  x15 ,  2&31
	srli x30 ,  x30 ,  12&31
	or x14 ,  x14 ,  x30
	add x15 ,  x14 ,  x15
	lw x15 ,  0 ( x15 )
	jalr x0 ,  0 ( x15 )
.LBB0_3:                                //  %sw.bb
	call iswalnum
	lw x1 ,  4 ( x2 )               //  4-byte Folded Reload
	addi x2 ,  x2 ,  8
	.cfi_def_cfa 2, 0
	ret
.LBB0_4:                                //  %sw.bb1
	call iswalpha
	lw x1 ,  4 ( x2 )               //  4-byte Folded Reload
	addi x2 ,  x2 ,  8
	.cfi_def_cfa 2, 0
	ret
.LBB0_5:                                //  %sw.bb3
	call iswblank
	lw x1 ,  4 ( x2 )               //  4-byte Folded Reload
	addi x2 ,  x2 ,  8
	.cfi_def_cfa 2, 0
	ret
.LBB0_6:                                //  %sw.bb5
	call iswcntrl
	lw x1 ,  4 ( x2 )               //  4-byte Folded Reload
	addi x2 ,  x2 ,  8
	.cfi_def_cfa 2, 0
	ret
.LBB0_7:                                //  %sw.bb7
	call iswdigit
	lw x1 ,  4 ( x2 )               //  4-byte Folded Reload
	addi x2 ,  x2 ,  8
	.cfi_def_cfa 2, 0
	ret
.LBB0_8:                                //  %sw.bb9
	call iswgraph
	lw x1 ,  4 ( x2 )               //  4-byte Folded Reload
	addi x2 ,  x2 ,  8
	.cfi_def_cfa 2, 0
	ret
.LBB0_9:                                //  %sw.bb11
	call iswlower
	lw x1 ,  4 ( x2 )               //  4-byte Folded Reload
	addi x2 ,  x2 ,  8
	.cfi_def_cfa 2, 0
	ret
.LBB0_10:                               //  %sw.bb13
	call iswprint
	lw x1 ,  4 ( x2 )               //  4-byte Folded Reload
	addi x2 ,  x2 ,  8
	.cfi_def_cfa 2, 0
	ret
.LBB0_11:                               //  %sw.bb15
	call iswpunct
	lw x1 ,  4 ( x2 )               //  4-byte Folded Reload
	addi x2 ,  x2 ,  8
	.cfi_def_cfa 2, 0
	ret
.LBB0_12:                               //  %sw.bb17
	call iswspace
	lw x1 ,  4 ( x2 )               //  4-byte Folded Reload
	addi x2 ,  x2 ,  8
	.cfi_def_cfa 2, 0
	ret
.LBB0_13:                               //  %sw.bb19
	call iswupper
	lw x1 ,  4 ( x2 )               //  4-byte Folded Reload
	addi x2 ,  x2 ,  8
	.cfi_def_cfa 2, 0
	ret
.LBB0_14:                               //  %sw.bb21
	call iswxdigit
	lw x1 ,  4 ( x2 )               //  4-byte Folded Reload
	addi x2 ,  x2 ,  8
	.cfi_def_cfa 2, 0
	ret
.LBB0_1:
	add x10 ,  x0 ,  x0
	lw x1 ,  4 ( x2 )               //  4-byte Folded Reload
	addi x2 ,  x2 ,  8
	.cfi_def_cfa 2, 0
	ret
.Lfunc_end0:
	.size	iswctype, .Lfunc_end0-iswctype
	.cfi_endproc
	.section	.rodata,"a",@progbits
	.p2align	2
JTI0_0:
	.long	.LBB0_3
	.long	.LBB0_4
	.long	.LBB0_5
	.long	.LBB0_6
	.long	.LBB0_7
	.long	.LBB0_8
	.long	.LBB0_9
	.long	.LBB0_10
	.long	.LBB0_11
	.long	.LBB0_12
	.long	.LBB0_13
	.long	.LBB0_14
                                        //  -- End function

	.ident	"clang version 9.0.1 (ssh://git@gitlab.codasip.com/codasip-studio/llvm-project.git d5357f0eec354bae21f33cf62e5504ff6d1cc93d)"
	.section	".note.GNU-stack","",@progbits
