	.text
	.file	"__ten_mu.c"
	.globl	__ten_mul               //  -- Begin function __ten_mul
	.type	__ten_mul,@function
__ten_mul:                              //  @__ten_mul
	.cfi_sections .debug_frame
	.cfi_startproc
	.cfi_return_column 1
//  %bb.0:                              //  %entry
	.cfi_def_cfa 2, 0
	addi x2 ,  x2 ,  -24
	.cfi_adjust_cfa_offset 24
	sw x9 ,  16 ( x2 )              //  4-byte Folded Spill
	.cfi_offset 9, -8
	add x9 ,  x0 ,  x10
	sw x8 ,  0 ( x2 )               //  4-byte Folded Spill
	.cfi_offset 8, -24
	add x8 ,  x0 ,  x11
	sw x18 ,  12 ( x2 )             //  4-byte Folded Spill
	.cfi_offset 18, -12
	add x18 ,  x0 ,  x0
	lui x13 ,  (1076101120>>12)&1048575
	sw x1 ,  20 ( x2 )              //  4-byte Folded Spill
	.cfi_offset 1, -4
	sw x19 ,  8 ( x2 )              //  4-byte Folded Spill
	.cfi_offset 19, -16
	sw x20 ,  4 ( x2 )              //  4-byte Folded Spill
	.cfi_offset 20, -20
	lw x10 ,  0 ( x9 )
	add x12 ,  x0 ,  x18
	lw x11 ,  4 ( x9 )
	call __muldf3
	add x19 ,  x0 ,  x10
	add x10 ,  x0 ,  x8
	add x20 ,  x0 ,  x11
	call __floatsidf
	add x12 ,  x0 ,  x10
	add x13 ,  x0 ,  x11
	add x10 ,  x0 ,  x19
	add x11 ,  x0 ,  x20
	call __adddf3
	sw x10 ,  0 ( x9 )
	add x10 ,  x0 ,  x18
	sw x11 ,  4 ( x9 )
	lw x8 ,  0 ( x2 )               //  4-byte Folded Reload
	lw x20 ,  4 ( x2 )              //  4-byte Folded Reload
	lw x19 ,  8 ( x2 )              //  4-byte Folded Reload
	lw x18 ,  12 ( x2 )             //  4-byte Folded Reload
	lw x9 ,  16 ( x2 )              //  4-byte Folded Reload
	lw x1 ,  20 ( x2 )              //  4-byte Folded Reload
	addi x2 ,  x2 ,  24
	.cfi_def_cfa 2, 0
	ret
.Lfunc_end0:
	.size	__ten_mul, .Lfunc_end0-__ten_mul
	.cfi_endproc
                                        //  -- End function

	.ident	"clang version 9.0.1 (ssh://git@gitlab.codasip.com/codasip-studio/llvm-project.git d5357f0eec354bae21f33cf62e5504ff6d1cc93d)"
	.section	".note.GNU-stack","",@progbits
